; Function Attrs: nounwind uwtable
define internal noundef i32 @phar_stream_flush(ptr noundef readonly captures(none) %0) #0 {
  %2 = alloca ptr, align 8
  call void @llvm.lifetime.start.p0(i64 8, ptr nonnull %2) #15
  %3 = getelementptr inbounds nuw i8, ptr %0, i64 8
  %4 = load ptr, ptr %3, align 8, !tbaa !93
  %5 = getelementptr inbounds nuw i8, ptr %4, i64 32
  %6 = load ptr, ptr %5, align 8, !tbaa !63
  %7 = getelementptr inbounds nuw i8, ptr %6, i64 146
  %8 = load i16, ptr %7, align 2
  %9 = and i16 %8, 2
  %.not = icmp eq i16 %9, 0
  br i1 %.not, label %21, label %10

10:                                               ; preds = %1
  %11 = tail call i64 @time(ptr noundef null) #15
  %12 = trunc i64 %11 to i32
  %13 = load ptr, ptr %5, align 8, !tbaa !63
  %14 = getelementptr inbounds nuw i8, ptr %13, i64 4
  store i32 %12, ptr %14, align 4, !tbaa !106
  %15 = load ptr, ptr %4, align 8, !tbaa !68
  call void @phar_flush(ptr noundef %15, ptr noundef nonnull %2) #15
  %16 = load ptr, ptr %2, align 8, !tbaa !4
  %.not5 = icmp eq ptr %16, null
  br i1 %.not5, label %21, label %17

17:                                               ; preds = %10
  %18 = getelementptr inbounds nuw i8, ptr %0, i64 64
  %19 = load ptr, ptr %18, align 8, !tbaa !102
  call void (ptr, i32, ptr, ...) @php_stream_wrapper_log_error(ptr noundef %19, i32 noundef 8, ptr noundef nonnull @.str.6, ptr noundef nonnull %16) #15
  %20 = load ptr, ptr %2, align 8, !tbaa !4
  call void @_efree(ptr noundef %20) #15
  br label %21

21:                                               ; preds = %1, %10, %17
  call void @llvm.lifetime.end.p0(i64 8, ptr nonnull %2) #15
  ret i32 -1
}